(lp0
Vjpeg-8a
p1
aVlibpaper-1.1.23
p2
aVlibdvbpsi-0.1.6
p3
aVgnu-gs-fonts-std-8.11
p4
aVutil-macros-1.6.1
p5
aVfreetype-2.3.11
p6
aVqt-core-4.6.2-r1
p7
aVlibpng-1.2.43-r2
p8
aVcurl-7.20.0-r2
p9
aVlibgpg-error-1.7
p10
aVtiff-3.9.2-r1
p11
aVswig-1.3.36
p12
aVyasm-0.8.0
p13
aVxproto-7.0.16
p14
aVxextproto-7.1.1
p15
aVxtrans-1.2.5
p16
aVlibgcrypt-1.4.5
p17
aVinputproto-2.0
p18
aVrenderproto-0.11
p19
aVffmpeg-0.5_p20373
p20
aVqt-script-4.6.2
p21
aVfontsproto-2.1.0
p22
aVlcms-1.19
p23
aVxmlrpc-c-1.18.02
p24
aVrandrproto-1.3.1
p25
aVkbproto-1.0.4
p26
aVxf86bigfontproto-1.2.0
p27
aVxcb-proto-1.6
p28
aVlibpthread-stubs-0.1
p29
aVfixesproto-4.1.1
p30
aVlibfontenc-1.0.5
p31
aVcmake-2.6.4-r3
p32
aVlibICE-1.0.6
p33
aVlibxslt-1.1.26
p34
aVlibXau-1.0.5
p35
aVlibXdmcp-1.0.3
p36
aVlibSM-1.1.1
p37
aVlibXfont-1.4.1
p38
aVlibxcb-1.5
p39
aVlibX11-1.3.3
p40
aVlibXext-1.1.1
p41
aVlibXrender-0.9.5
p42
aVlibXfixes-4.0.4
p43
aVlibXrandr-1.3.0
p44
aVlibXcursor-1.1.10
p45
aVlibXi-1.3
p46
aVfontconfig-2.8.0
p47
aVeselect-fontconfig-1.0
p48
aVpoppler-0.12.3-r3
p49
aVcups-1.3.11-r1
p50
aVghostscript-gpl-8.64-r3
p51
aVqt-gui-4.6.2
p52
aVvlc-1.0.6
p53
a.