(lp0
Vftp://gentoo.mirrors.tds.net/gentoo/distfiles/ghostscript-fonts-std-8.11.tar.gz
p1
aVftp://ftp.lug.udel.edu/pub/gentoo/distfiles/ghostscript-fonts-std-8.11.tar.gz
p2
aVhttp://www.gtlib.gatech.edu/pub/gentoo/distfiles/ghostscript-fonts-std-8.11.tar.gz
p3
aVftp://ftp.wallawalla.edu/pub/mirrors/ftp.gentoo.org/distfiles/ghostscript-fonts-std-8.11.tar.gz
p4
aVftp://gentoo.netnitco.net/pub/mirrors/gentoo/source/distfiles/ghostscript-fonts-std-8.11.tar.gz
p5
aVhttp://gentoo.mirrors.easynews.com/linux/gentoo/distfiles/ghostscript-fonts-std-8.11.tar.gz
p6
aVhttp://gentoo.cites.uiuc.edu/pub/gentoo/distfiles/ghostscript-fonts-std-8.11.tar.gz
p7
aVftp://distro.ibiblio.org/pub/linux/distributions/gentoo/distfiles/ghostscript-fonts-std-8.11.tar.gz
p8
aVhttp://mirror.usu.edu/mirrors/gentoo/distfiles/ghostscript-fonts-std-8.11.tar.gz
p9
aVftp://gentoo.chem.wisc.edu/gentoo/distfiles/ghostscript-fonts-std-8.11.tar.gz
p10
aVhttp://chi-10g-1-mirror.fastsoft.net/pub/linux/gentoo/gentoo-distfiles/distfiles/ghostscript-fonts-std-8.11.tar.gz
p11
aVhttp://gentoo.osuosl.org/distfiles/ghostscript-fonts-std-8.11.tar.gz
p12
aVhttp://gentoo.mirrors.hoobly.com/distfiles/ghostscript-fonts-std-8.11.tar.gz
p13
aVftp://mirror.its.uidaho.edu/gentoo/distfiles/ghostscript-fonts-std-8.11.tar.gz
p14
aVftp://gentoo.llarian.net/pub/gentoo/distfiles/ghostscript-fonts-std-8.11.tar.gz
p15
aVftp://mirrors.rit.edu/gentoo/distfiles/ghostscript-fonts-std-8.11.tar.gz
p16
aVhttp://www.cyberuse.com/gentoo/distfiles/ghostscript-fonts-std-8.11.tar.gz
p17
aVhttp://mirror.datapipe.net/gentoo/distfiles/ghostscript-fonts-std-8.11.tar.gz
p18
aVhttp://gentoo.mirrors.tds.net/gentoo/distfiles/ghostscript-fonts-std-8.11.tar.gz
p19
aVhttp://mirrors.cs.wmich.edu/gentoo/distfiles/ghostscript-fonts-std-8.11.tar.gz
p20
aVhttp://distro.ibiblio.org/pub/linux/distributions/gentoo/distfiles/ghostscript-fonts-std-8.11.tar.gz
p21
aVhttp://mirrors.rit.edu/gentoo/distfiles/ghostscript-fonts-std-8.11.tar.gz
p22
aVftp://mirror.iawnet.sandia.gov/pub/gentoo/distfiles/ghostscript-fonts-std-8.11.tar.gz
p23
aVftp://ftp.ussg.iu.edu/pub/linux/gentoo/distfiles/ghostscript-fonts-std-8.11.tar.gz
p24
aVhttp://mirror.mcs.anl.gov/pub/gentoo/distfiles/ghostscript-fonts-std-8.11.tar.gz
p25
aVhttp://gentoo.cs.uni.edu/distfiles/ghostscript-fonts-std-8.11.tar.gz
p26
aVftp://gentoo.cites.uiuc.edu/pub/gentoo/distfiles/ghostscript-fonts-std-8.11.tar.gz
p27
aVftp://mirror.datapipe.net/gentoo/distfiles/ghostscript-fonts-std-8.11.tar.gz
p28
aVhttp://ftp.ucsb.edu/pub/mirrors/linux/gentoo/distfiles/ghostscript-fonts-std-8.11.tar.gz
p29
aVhttp://lug.mtu.edu/gentoo/distfiles/ghostscript-fonts-std-8.11.tar.gz
p30
aVhttp://mirror.its.uidaho.edu/pub/gentoo/distfiles/ghostscript-fonts-std-8.11.tar.gz
p31
aVftp://lug.mtu.edu/gentoo/distfiles/ghostscript-fonts-std-8.11.tar.gz
p32
aVhttp://gentoo.chem.wisc.edu/gentoo/distfiles/ghostscript-fonts-std-8.11.tar.gz
p33
aVhttp://gentoo.llarian.net/distfiles/ghostscript-fonts-std-8.11.tar.gz
p34
aVftp://ftp.ucsb.edu/pub/mirrors/linux/gentoo/distfiles/ghostscript-fonts-std-8.11.tar.gz
p35
aVhttp://gentoo.netnitco.net/distfiles/ghostscript-fonts-std-8.11.tar.gz
p36
aVftp://mirror.mcs.anl.gov/pub/gentoo/distfiles/ghostscript-fonts-std-8.11.tar.gz
p37
aVhttp://mirror.lug.udel.edu/pub/gentoo/distfiles/ghostscript-fonts-std-8.11.tar.gz
p38
aVftp://chi-10g-1-mirror.fastsoft.net/pub/linux/gentoo/gentoo-distfiles/distfiles/ghostscript-fonts-std-8.11.tar.gz
p39
aVftp://ftp.gtlib.gatech.edu/pub/gentoo/distfiles/ghostscript-fonts-std-8.11.tar.gz
p40
aVhttp://heanet.dl.sourceforge.net/sourceforge/ghostscript/ghostscript-fonts-std-8.11.tar.gz
p41
aVhttp://internode.dl.sourceforge.net/sourceforge/ghostscript/ghostscript-fonts-std-8.11.tar.gz
p42
aVhttp://internap.dl.sourceforge.net/sourceforge/ghostscript/ghostscript-fonts-std-8.11.tar.gz
p43
aVhttp://jaist.dl.sourceforge.net/sourceforge/ghostscript/ghostscript-fonts-std-8.11.tar.gz
p44
aVhttp://mesh.dl.sourceforge.net/sourceforge/ghostscript/ghostscript-fonts-std-8.11.tar.gz
p45
aVhttp://softlayer.dl.sourceforge.net/sourceforge/ghostscript/ghostscript-fonts-std-8.11.tar.gz
p46
aVhttp://kent.dl.sourceforge.net/sourceforge/ghostscript/ghostscript-fonts-std-8.11.tar.gz
p47
aVhttp://puzzle.dl.sourceforge.net/sourceforge/ghostscript/ghostscript-fonts-std-8.11.tar.gz
p48
aVhttp://ignum.dl.sourceforge.net/sourceforge/ghostscript/ghostscript-fonts-std-8.11.tar.gz
p49
aVhttp://freefr.dl.sourceforge.net/sourceforge/ghostscript/ghostscript-fonts-std-8.11.tar.gz
p50
aVhttp://surfnet.dl.sourceforge.net/sourceforge/ghostscript/ghostscript-fonts-std-8.11.tar.gz
p51
aVhttp://iweb.dl.sourceforge.net/sourceforge/ghostscript/ghostscript-fonts-std-8.11.tar.gz
p52
aVhttp://cdnetworks-kr-2.dl.sourceforge.net/sourceforge/ghostscript/ghostscript-fonts-std-8.11.tar.gz
p53
aVhttp://cdnetworks-kr-1.dl.sourceforge.net/sourceforge/ghostscript/ghostscript-fonts-std-8.11.tar.gz
p54
aVhttp://dfn.dl.sourceforge.net/sourceforge/ghostscript/ghostscript-fonts-std-8.11.tar.gz
p55
aVhttp://nchc.dl.sourceforge.net/sourceforge/ghostscript/ghostscript-fonts-std-8.11.tar.gz
p56
aVhttp://ovh.dl.sourceforge.net/sourceforge/ghostscript/ghostscript-fonts-std-8.11.tar.gz
p57
aVhttp://biznetnetworks.dl.sourceforge.net/sourceforge/ghostscript/ghostscript-fonts-std-8.11.tar.gz
p58
aVhttp://voxel.dl.sourceforge.net/sourceforge/ghostscript/ghostscript-fonts-std-8.11.tar.gz
p59
aVhttp://ncu.dl.sourceforge.net/sourceforge/ghostscript/ghostscript-fonts-std-8.11.tar.gz
p60
aVhttp://waix.dl.sourceforge.net/sourceforge/ghostscript/ghostscript-fonts-std-8.11.tar.gz
p61
aVhttp://garr.dl.sourceforge.net/sourceforge/ghostscript/ghostscript-fonts-std-8.11.tar.gz
p62
aVhttp://cdnetworks-us-1.dl.sourceforge.net/sourceforge/ghostscript/ghostscript-fonts-std-8.11.tar.gz
p63
aVhttp://cdnetworks-us-2.dl.sourceforge.net/sourceforge/ghostscript/ghostscript-fonts-std-8.11.tar.gz
p64
aVhttp://sunet.dl.sourceforge.net/sourceforge/ghostscript/ghostscript-fonts-std-8.11.tar.gz
p65
aVhttp://ufpr.dl.sourceforge.net/sourceforge/ghostscript/ghostscript-fonts-std-8.11.tar.gz
p66
aVhttp://transact.dl.sourceforge.net/sourceforge/ghostscript/ghostscript-fonts-std-8.11.tar.gz
p67
aVhttp://switch.dl.sourceforge.net/sourceforge/ghostscript/ghostscript-fonts-std-8.11.tar.gz
p68
a.