(lp0
Vftp://gentoo.mirrors.tds.net/gentoo/distfiles/ghostscript-8.64.tar.bz2
p1
aVftp://ftp.lug.udel.edu/pub/gentoo/distfiles/ghostscript-8.64.tar.bz2
p2
aVhttp://www.gtlib.gatech.edu/pub/gentoo/distfiles/ghostscript-8.64.tar.bz2
p3
aVftp://ftp.wallawalla.edu/pub/mirrors/ftp.gentoo.org/distfiles/ghostscript-8.64.tar.bz2
p4
aVftp://gentoo.netnitco.net/pub/mirrors/gentoo/source/distfiles/ghostscript-8.64.tar.bz2
p5
aVhttp://gentoo.mirrors.easynews.com/linux/gentoo/distfiles/ghostscript-8.64.tar.bz2
p6
aVhttp://gentoo.cites.uiuc.edu/pub/gentoo/distfiles/ghostscript-8.64.tar.bz2
p7
aVftp://distro.ibiblio.org/pub/linux/distributions/gentoo/distfiles/ghostscript-8.64.tar.bz2
p8
aVhttp://mirror.usu.edu/mirrors/gentoo/distfiles/ghostscript-8.64.tar.bz2
p9
aVftp://gentoo.chem.wisc.edu/gentoo/distfiles/ghostscript-8.64.tar.bz2
p10
aVhttp://chi-10g-1-mirror.fastsoft.net/pub/linux/gentoo/gentoo-distfiles/distfiles/ghostscript-8.64.tar.bz2
p11
aVhttp://gentoo.osuosl.org/distfiles/ghostscript-8.64.tar.bz2
p12
aVhttp://gentoo.mirrors.hoobly.com/distfiles/ghostscript-8.64.tar.bz2
p13
aVftp://mirror.its.uidaho.edu/gentoo/distfiles/ghostscript-8.64.tar.bz2
p14
aVftp://gentoo.llarian.net/pub/gentoo/distfiles/ghostscript-8.64.tar.bz2
p15
aVftp://mirrors.rit.edu/gentoo/distfiles/ghostscript-8.64.tar.bz2
p16
aVhttp://www.cyberuse.com/gentoo/distfiles/ghostscript-8.64.tar.bz2
p17
aVhttp://mirror.datapipe.net/gentoo/distfiles/ghostscript-8.64.tar.bz2
p18
aVhttp://gentoo.mirrors.tds.net/gentoo/distfiles/ghostscript-8.64.tar.bz2
p19
aVhttp://mirrors.cs.wmich.edu/gentoo/distfiles/ghostscript-8.64.tar.bz2
p20
aVhttp://distro.ibiblio.org/pub/linux/distributions/gentoo/distfiles/ghostscript-8.64.tar.bz2
p21
aVhttp://mirrors.rit.edu/gentoo/distfiles/ghostscript-8.64.tar.bz2
p22
aVftp://mirror.iawnet.sandia.gov/pub/gentoo/distfiles/ghostscript-8.64.tar.bz2
p23
aVftp://ftp.ussg.iu.edu/pub/linux/gentoo/distfiles/ghostscript-8.64.tar.bz2
p24
aVhttp://mirror.mcs.anl.gov/pub/gentoo/distfiles/ghostscript-8.64.tar.bz2
p25
aVhttp://gentoo.cs.uni.edu/distfiles/ghostscript-8.64.tar.bz2
p26
aVftp://gentoo.cites.uiuc.edu/pub/gentoo/distfiles/ghostscript-8.64.tar.bz2
p27
aVftp://mirror.datapipe.net/gentoo/distfiles/ghostscript-8.64.tar.bz2
p28
aVhttp://ftp.ucsb.edu/pub/mirrors/linux/gentoo/distfiles/ghostscript-8.64.tar.bz2
p29
aVhttp://lug.mtu.edu/gentoo/distfiles/ghostscript-8.64.tar.bz2
p30
aVhttp://mirror.its.uidaho.edu/pub/gentoo/distfiles/ghostscript-8.64.tar.bz2
p31
aVftp://lug.mtu.edu/gentoo/distfiles/ghostscript-8.64.tar.bz2
p32
aVhttp://gentoo.chem.wisc.edu/gentoo/distfiles/ghostscript-8.64.tar.bz2
p33
aVhttp://gentoo.llarian.net/distfiles/ghostscript-8.64.tar.bz2
p34
aVftp://ftp.ucsb.edu/pub/mirrors/linux/gentoo/distfiles/ghostscript-8.64.tar.bz2
p35
aVhttp://gentoo.netnitco.net/distfiles/ghostscript-8.64.tar.bz2
p36
aVftp://mirror.mcs.anl.gov/pub/gentoo/distfiles/ghostscript-8.64.tar.bz2
p37
aVhttp://mirror.lug.udel.edu/pub/gentoo/distfiles/ghostscript-8.64.tar.bz2
p38
aVftp://chi-10g-1-mirror.fastsoft.net/pub/linux/gentoo/gentoo-distfiles/distfiles/ghostscript-8.64.tar.bz2
p39
aVftp://ftp.gtlib.gatech.edu/pub/gentoo/distfiles/ghostscript-8.64.tar.bz2
p40
aVhttp://ovh.dl.sourceforge.net/sourceforge/ghostscript/ghostscript-8.64.tar.bz2
p41
aVhttp://ignum.dl.sourceforge.net/sourceforge/ghostscript/ghostscript-8.64.tar.bz2
p42
aVhttp://mesh.dl.sourceforge.net/sourceforge/ghostscript/ghostscript-8.64.tar.bz2
p43
aVhttp://cdnetworks-kr-1.dl.sourceforge.net/sourceforge/ghostscript/ghostscript-8.64.tar.bz2
p44
aVhttp://biznetnetworks.dl.sourceforge.net/sourceforge/ghostscript/ghostscript-8.64.tar.bz2
p45
aVhttp://heanet.dl.sourceforge.net/sourceforge/ghostscript/ghostscript-8.64.tar.bz2
p46
aVhttp://freefr.dl.sourceforge.net/sourceforge/ghostscript/ghostscript-8.64.tar.bz2
p47
aVhttp://softlayer.dl.sourceforge.net/sourceforge/ghostscript/ghostscript-8.64.tar.bz2
p48
aVhttp://cdnetworks-us-1.dl.sourceforge.net/sourceforge/ghostscript/ghostscript-8.64.tar.bz2
p49
aVhttp://surfnet.dl.sourceforge.net/sourceforge/ghostscript/ghostscript-8.64.tar.bz2
p50
aVhttp://voxel.dl.sourceforge.net/sourceforge/ghostscript/ghostscript-8.64.tar.bz2
p51
aVhttp://internode.dl.sourceforge.net/sourceforge/ghostscript/ghostscript-8.64.tar.bz2
p52
aVhttp://switch.dl.sourceforge.net/sourceforge/ghostscript/ghostscript-8.64.tar.bz2
p53
aVhttp://transact.dl.sourceforge.net/sourceforge/ghostscript/ghostscript-8.64.tar.bz2
p54
aVhttp://waix.dl.sourceforge.net/sourceforge/ghostscript/ghostscript-8.64.tar.bz2
p55
aVhttp://puzzle.dl.sourceforge.net/sourceforge/ghostscript/ghostscript-8.64.tar.bz2
p56
aVhttp://internap.dl.sourceforge.net/sourceforge/ghostscript/ghostscript-8.64.tar.bz2
p57
aVhttp://ncu.dl.sourceforge.net/sourceforge/ghostscript/ghostscript-8.64.tar.bz2
p58
aVhttp://cdnetworks-kr-2.dl.sourceforge.net/sourceforge/ghostscript/ghostscript-8.64.tar.bz2
p59
aVhttp://garr.dl.sourceforge.net/sourceforge/ghostscript/ghostscript-8.64.tar.bz2
p60
aVhttp://dfn.dl.sourceforge.net/sourceforge/ghostscript/ghostscript-8.64.tar.bz2
p61
aVhttp://kent.dl.sourceforge.net/sourceforge/ghostscript/ghostscript-8.64.tar.bz2
p62
aVhttp://nchc.dl.sourceforge.net/sourceforge/ghostscript/ghostscript-8.64.tar.bz2
p63
aVhttp://jaist.dl.sourceforge.net/sourceforge/ghostscript/ghostscript-8.64.tar.bz2
p64
aVhttp://ufpr.dl.sourceforge.net/sourceforge/ghostscript/ghostscript-8.64.tar.bz2
p65
aVhttp://sunet.dl.sourceforge.net/sourceforge/ghostscript/ghostscript-8.64.tar.bz2
p66
aVhttp://iweb.dl.sourceforge.net/sourceforge/ghostscript/ghostscript-8.64.tar.bz2
p67
aVhttp://cdnetworks-us-2.dl.sourceforge.net/sourceforge/ghostscript/ghostscript-8.64.tar.bz2
p68
a.