(lp0
Vftp://gentoo.mirrors.tds.net/gentoo/distfiles/libgpg-error-1.7.tar.bz2
p1
aVftp://ftp.lug.udel.edu/pub/gentoo/distfiles/libgpg-error-1.7.tar.bz2
p2
aVhttp://www.gtlib.gatech.edu/pub/gentoo/distfiles/libgpg-error-1.7.tar.bz2
p3
aVftp://ftp.wallawalla.edu/pub/mirrors/ftp.gentoo.org/distfiles/libgpg-error-1.7.tar.bz2
p4
aVftp://gentoo.netnitco.net/pub/mirrors/gentoo/source/distfiles/libgpg-error-1.7.tar.bz2
p5
aVhttp://gentoo.mirrors.easynews.com/linux/gentoo/distfiles/libgpg-error-1.7.tar.bz2
p6
aVhttp://gentoo.cites.uiuc.edu/pub/gentoo/distfiles/libgpg-error-1.7.tar.bz2
p7
aVftp://distro.ibiblio.org/pub/linux/distributions/gentoo/distfiles/libgpg-error-1.7.tar.bz2
p8
aVhttp://mirror.usu.edu/mirrors/gentoo/distfiles/libgpg-error-1.7.tar.bz2
p9
aVftp://gentoo.chem.wisc.edu/gentoo/distfiles/libgpg-error-1.7.tar.bz2
p10
aVhttp://chi-10g-1-mirror.fastsoft.net/pub/linux/gentoo/gentoo-distfiles/distfiles/libgpg-error-1.7.tar.bz2
p11
aVhttp://gentoo.osuosl.org/distfiles/libgpg-error-1.7.tar.bz2
p12
aVhttp://gentoo.mirrors.hoobly.com/distfiles/libgpg-error-1.7.tar.bz2
p13
aVftp://mirror.its.uidaho.edu/gentoo/distfiles/libgpg-error-1.7.tar.bz2
p14
aVftp://gentoo.llarian.net/pub/gentoo/distfiles/libgpg-error-1.7.tar.bz2
p15
aVftp://mirrors.rit.edu/gentoo/distfiles/libgpg-error-1.7.tar.bz2
p16
aVhttp://www.cyberuse.com/gentoo/distfiles/libgpg-error-1.7.tar.bz2
p17
aVhttp://mirror.datapipe.net/gentoo/distfiles/libgpg-error-1.7.tar.bz2
p18
aVhttp://gentoo.mirrors.tds.net/gentoo/distfiles/libgpg-error-1.7.tar.bz2
p19
aVhttp://mirrors.cs.wmich.edu/gentoo/distfiles/libgpg-error-1.7.tar.bz2
p20
aVhttp://distro.ibiblio.org/pub/linux/distributions/gentoo/distfiles/libgpg-error-1.7.tar.bz2
p21
aVhttp://mirrors.rit.edu/gentoo/distfiles/libgpg-error-1.7.tar.bz2
p22
aVftp://mirror.iawnet.sandia.gov/pub/gentoo/distfiles/libgpg-error-1.7.tar.bz2
p23
aVftp://ftp.ussg.iu.edu/pub/linux/gentoo/distfiles/libgpg-error-1.7.tar.bz2
p24
aVhttp://mirror.mcs.anl.gov/pub/gentoo/distfiles/libgpg-error-1.7.tar.bz2
p25
aVhttp://gentoo.cs.uni.edu/distfiles/libgpg-error-1.7.tar.bz2
p26
aVftp://gentoo.cites.uiuc.edu/pub/gentoo/distfiles/libgpg-error-1.7.tar.bz2
p27
aVftp://mirror.datapipe.net/gentoo/distfiles/libgpg-error-1.7.tar.bz2
p28
aVhttp://ftp.ucsb.edu/pub/mirrors/linux/gentoo/distfiles/libgpg-error-1.7.tar.bz2
p29
aVhttp://lug.mtu.edu/gentoo/distfiles/libgpg-error-1.7.tar.bz2
p30
aVhttp://mirror.its.uidaho.edu/pub/gentoo/distfiles/libgpg-error-1.7.tar.bz2
p31
aVftp://lug.mtu.edu/gentoo/distfiles/libgpg-error-1.7.tar.bz2
p32
aVhttp://gentoo.chem.wisc.edu/gentoo/distfiles/libgpg-error-1.7.tar.bz2
p33
aVhttp://gentoo.llarian.net/distfiles/libgpg-error-1.7.tar.bz2
p34
aVftp://ftp.ucsb.edu/pub/mirrors/linux/gentoo/distfiles/libgpg-error-1.7.tar.bz2
p35
aVhttp://gentoo.netnitco.net/distfiles/libgpg-error-1.7.tar.bz2
p36
aVftp://mirror.mcs.anl.gov/pub/gentoo/distfiles/libgpg-error-1.7.tar.bz2
p37
aVhttp://mirror.lug.udel.edu/pub/gentoo/distfiles/libgpg-error-1.7.tar.bz2
p38
aVftp://chi-10g-1-mirror.fastsoft.net/pub/linux/gentoo/gentoo-distfiles/distfiles/libgpg-error-1.7.tar.bz2
p39
aVftp://ftp.gtlib.gatech.edu/pub/gentoo/distfiles/libgpg-error-1.7.tar.bz2
p40
aVhttp://ftp.gnupg.zone-h.org/libgpg-error/libgpg-error-1.7.tar.bz2
p41
aVftp://ftp.surfnet.nl/pub/security/gnupg/libgpg-error/libgpg-error-1.7.tar.bz2
p42
aVhttp://public.planetmirror.com/pub/libgpg-error/libgpg-error-1.7.tar.bz2
p43
aVhttp://www.mirror386.com/gnupg/libgpg-error/libgpg-error-1.7.tar.bz2
p44
aVftp://ftp.bit.nl/mirror/libgpg-error/libgpg-error-1.7.tar.bz2
p45
aVhttp://gnupg.unixmexico.org/ftp/libgpg-error/libgpg-error-1.7.tar.bz2
p46
aVftp://pgp.iijlab.net/pub/pgp/libgpg-error/libgpg-error-1.7.tar.bz2
p47
aVftp://sunsite.icm.edu.pl/pub/security/gnupg/libgpg-error/libgpg-error-1.7.tar.bz2
p48
aVhttp://www.ring.gr.jp/pub/net/gnupg/libgpg-error/libgpg-error-1.7.tar.bz2
p49
aVftp://ftp.demon.nl/pub/mirrors/gnupg/libgpg-error/libgpg-error-1.7.tar.bz2
p50
aVftp://gd.tuwien.ac.at/privacy/gnupg/libgpg-error/libgpg-error-1.7.tar.bz2
p51
aVftp://ftp.ring.gr.jp/pub/net/gnupg/libgpg-error/libgpg-error-1.7.tar.bz2
p52
aVftp://ftp.linux.it/pub/mirrors/gnupg/libgpg-error/libgpg-error-1.7.tar.bz2
p53
aVftp://ftp.hi.is/pub/mirrors/gnupg/libgpg-error/libgpg-error-1.7.tar.bz2
p54
aVhttp://gulus.usherbrooke.ca/pub/appl/GnuPG/libgpg-error/libgpg-error-1.7.tar.bz2
p55
aVftp://ftp.franken.de/pub/crypt/mirror/ftp.gnupg.org/gcrypt/libgpg-error/libgpg-error-1.7.tar.bz2
p56
aVftp://ftp.cert.dfn.de/pub/tools/crypt/gcrypt/libgpg-error/libgpg-error-1.7.tar.bz2
p57
aVftp://ftp.iasi.roedu.net/pub/mirrors/ftp.gnupg.org/libgpg-error/libgpg-error-1.7.tar.bz2
p58
aVhttp://sunsite.rediris.es/mirror/gnupg/libgpg-error/libgpg-error-1.7.tar.bz2
p59
aVhttp://ftp.uoi.gr/mirror/gcrypt/libgpg-error/libgpg-error-1.7.tar.bz2
p60
aVftp://ftp.rediris.es/mirror/gnupg/libgpg-error/libgpg-error-1.7.tar.bz2
p61
aVftp://ftp.uoi.gr/mirror/gcrypt/libgpg-error/libgpg-error-1.7.tar.bz2
p62
aVhttp://ftp.gnupg.tsuren.net/libgpg-error/libgpg-error-1.7.tar.bz2
p63
aVftp://igloo.linux.gr/pub/crypto/gnupg/libgpg-error/libgpg-error-1.7.tar.bz2
p64
aVhttp://gnupg.wildyou.net/libgpg-error/libgpg-error-1.7.tar.bz2
p65
aVhttp://ftp.linux.it/pub/mirrors/gnupg/libgpg-error/libgpg-error-1.7.tar.bz2
p66
a.