(lp0
Vftp://gentoo.mirrors.tds.net/gentoo/distfiles/libjpeg7_7-1.diff.gz
p1
aVftp://ftp.lug.udel.edu/pub/gentoo/distfiles/libjpeg7_7-1.diff.gz
p2
aVhttp://www.gtlib.gatech.edu/pub/gentoo/distfiles/libjpeg7_7-1.diff.gz
p3
aVftp://ftp.wallawalla.edu/pub/mirrors/ftp.gentoo.org/distfiles/libjpeg7_7-1.diff.gz
p4
aVftp://gentoo.netnitco.net/pub/mirrors/gentoo/source/distfiles/libjpeg7_7-1.diff.gz
p5
aVhttp://gentoo.mirrors.easynews.com/linux/gentoo/distfiles/libjpeg7_7-1.diff.gz
p6
aVhttp://gentoo.cites.uiuc.edu/pub/gentoo/distfiles/libjpeg7_7-1.diff.gz
p7
aVftp://distro.ibiblio.org/pub/linux/distributions/gentoo/distfiles/libjpeg7_7-1.diff.gz
p8
aVhttp://mirror.usu.edu/mirrors/gentoo/distfiles/libjpeg7_7-1.diff.gz
p9
aVftp://gentoo.chem.wisc.edu/gentoo/distfiles/libjpeg7_7-1.diff.gz
p10
aVhttp://chi-10g-1-mirror.fastsoft.net/pub/linux/gentoo/gentoo-distfiles/distfiles/libjpeg7_7-1.diff.gz
p11
aVhttp://gentoo.osuosl.org/distfiles/libjpeg7_7-1.diff.gz
p12
aVhttp://gentoo.mirrors.hoobly.com/distfiles/libjpeg7_7-1.diff.gz
p13
aVftp://mirror.its.uidaho.edu/gentoo/distfiles/libjpeg7_7-1.diff.gz
p14
aVftp://gentoo.llarian.net/pub/gentoo/distfiles/libjpeg7_7-1.diff.gz
p15
aVftp://mirrors.rit.edu/gentoo/distfiles/libjpeg7_7-1.diff.gz
p16
aVhttp://www.cyberuse.com/gentoo/distfiles/libjpeg7_7-1.diff.gz
p17
aVhttp://mirror.datapipe.net/gentoo/distfiles/libjpeg7_7-1.diff.gz
p18
aVhttp://gentoo.mirrors.tds.net/gentoo/distfiles/libjpeg7_7-1.diff.gz
p19
aVhttp://mirrors.cs.wmich.edu/gentoo/distfiles/libjpeg7_7-1.diff.gz
p20
aVhttp://distro.ibiblio.org/pub/linux/distributions/gentoo/distfiles/libjpeg7_7-1.diff.gz
p21
aVhttp://mirrors.rit.edu/gentoo/distfiles/libjpeg7_7-1.diff.gz
p22
aVftp://mirror.iawnet.sandia.gov/pub/gentoo/distfiles/libjpeg7_7-1.diff.gz
p23
aVftp://ftp.ussg.iu.edu/pub/linux/gentoo/distfiles/libjpeg7_7-1.diff.gz
p24
aVhttp://mirror.mcs.anl.gov/pub/gentoo/distfiles/libjpeg7_7-1.diff.gz
p25
aVhttp://gentoo.cs.uni.edu/distfiles/libjpeg7_7-1.diff.gz
p26
aVftp://gentoo.cites.uiuc.edu/pub/gentoo/distfiles/libjpeg7_7-1.diff.gz
p27
aVftp://mirror.datapipe.net/gentoo/distfiles/libjpeg7_7-1.diff.gz
p28
aVhttp://ftp.ucsb.edu/pub/mirrors/linux/gentoo/distfiles/libjpeg7_7-1.diff.gz
p29
aVhttp://lug.mtu.edu/gentoo/distfiles/libjpeg7_7-1.diff.gz
p30
aVhttp://mirror.its.uidaho.edu/pub/gentoo/distfiles/libjpeg7_7-1.diff.gz
p31
aVftp://lug.mtu.edu/gentoo/distfiles/libjpeg7_7-1.diff.gz
p32
aVhttp://gentoo.chem.wisc.edu/gentoo/distfiles/libjpeg7_7-1.diff.gz
p33
aVhttp://gentoo.llarian.net/distfiles/libjpeg7_7-1.diff.gz
p34
aVftp://ftp.ucsb.edu/pub/mirrors/linux/gentoo/distfiles/libjpeg7_7-1.diff.gz
p35
aVhttp://gentoo.netnitco.net/distfiles/libjpeg7_7-1.diff.gz
p36
aVftp://mirror.mcs.anl.gov/pub/gentoo/distfiles/libjpeg7_7-1.diff.gz
p37
aVhttp://mirror.lug.udel.edu/pub/gentoo/distfiles/libjpeg7_7-1.diff.gz
p38
aVftp://chi-10g-1-mirror.fastsoft.net/pub/linux/gentoo/gentoo-distfiles/distfiles/libjpeg7_7-1.diff.gz
p39
aVftp://ftp.gtlib.gatech.edu/pub/gentoo/distfiles/libjpeg7_7-1.diff.gz
p40
aVhttp://ftp.ba.debian.org/debian/pool/main/libj/libjpeg7/libjpeg7_7-1.diff.gz
p41
aVhttp://ftp.fi.debian.org/debian/pool/main/libj/libjpeg7/libjpeg7_7-1.diff.gz
p42
aVhttp://ftp.hr.debian.org/debian/pool/main/libj/libjpeg7/libjpeg7_7-1.diff.gz
p43
aVhttp://ftp.cl.debian.org/debian/pool/main/libj/libjpeg7/libjpeg7_7-1.diff.gz
p44
aVhttp://ftp.th.debian.org/debian/pool/main/libj/libjpeg7/libjpeg7_7-1.diff.gz
p45
aVhttp://ftp.pl.debian.org/debian/pool/main/libj/libjpeg7/libjpeg7_7-1.diff.gz
p46
aVhttp://ftp.si.debian.org/debian/pool/main/libj/libjpeg7/libjpeg7_7-1.diff.gz
p47
aVhttp://ftp2.de.debian.org/debian/pool/main/libj/libjpeg7/libjpeg7_7-1.diff.gz
p48
aVhttp://ftp2.fr.debian.org/debian/pool/main/libj/libjpeg7/libjpeg7_7-1.diff.gz
p49
aVhttp://ftp.hk.debian.org/debian/pool/main/libj/libjpeg7/libjpeg7_7-1.diff.gz
p50
aVhttp://ftp.au.debian.org/debian/pool/main/libj/libjpeg7/libjpeg7_7-1.diff.gz
p51
aVhttp://ftp.nc.debian.org/debian/pool/main/libj/libjpeg7/libjpeg7_7-1.diff.gz
p52
aVhttp://ftp.uk.debian.org/debian/pool/main/libj/libjpeg7/libjpeg7_7-1.diff.gz
p53
aVhttp://ftp.ro.debian.org/debian/pool/main/libj/libjpeg7/libjpeg7_7-1.diff.gz
p54
aVhttp://ftp.dk.debian.org/debian/pool/main/libj/libjpeg7/libjpeg7_7-1.diff.gz
p55
aVhttp://ftp2.jp.debian.org/debian/pool/main/libj/libjpeg7/libjpeg7_7-1.diff.gz
p56
aVhttp://ftp.ch.debian.org/debian/pool/main/libj/libjpeg7/libjpeg7_7-1.diff.gz
p57
aVhttp://ftp.kr.debian.org/debian/pool/main/libj/libjpeg7/libjpeg7_7-1.diff.gz
p58
aVhttp://ftp.tr.debian.org/debian/pool/main/libj/libjpeg7/libjpeg7_7-1.diff.gz
p59
aVhttp://ftp.nl.debian.org/debian/pool/main/libj/libjpeg7/libjpeg7_7-1.diff.gz
p60
aVhttp://ftp.jp.debian.org/debian/pool/main/libj/libjpeg7/libjpeg7_7-1.diff.gz
p61
aVhttp://ftp.tw.debian.org/debian/pool/main/libj/libjpeg7/libjpeg7_7-1.diff.gz
p62
aVhttp://ftp.fr.debian.org/debian/pool/main/libj/libjpeg7/libjpeg7_7-1.diff.gz
p63
aVhttp://ftp.es.debian.org/debian/pool/main/libj/libjpeg7/libjpeg7_7-1.diff.gz
p64
aVhttp://ftp.br.debian.org/debian/pool/main/libj/libjpeg7/libjpeg7_7-1.diff.gz
p65
aVhttp://ftp.pt.debian.org/debian/pool/main/libj/libjpeg7/libjpeg7_7-1.diff.gz
p66
aVhttp://ftp.ee.debian.org/debian/pool/main/libj/libjpeg7/libjpeg7_7-1.diff.gz
p67
aVhttp://ftp.ie.debian.org/debian/pool/main/libj/libjpeg7/libjpeg7_7-1.diff.gz
p68
aVhttp://ftp.no.debian.org/debian/pool/main/libj/libjpeg7/libjpeg7_7-1.diff.gz
p69
aVhttp://ftp.at.debian.org/debian/pool/main/libj/libjpeg7/libjpeg7_7-1.diff.gz
p70
aVhttp://ftp.it.debian.org/debian/pool/main/libj/libjpeg7/libjpeg7_7-1.diff.gz
p71
aVhttp://ftp.hu.debian.org/debian/pool/main/libj/libjpeg7/libjpeg7_7-1.diff.gz
p72
aVhttp://ftp.de.debian.org/debian/pool/main/libj/libjpeg7/libjpeg7_7-1.diff.gz
p73
aVhttp://ftp.cz.debian.org/debian/pool/main/libj/libjpeg7/libjpeg7_7-1.diff.gz
p74
aVhttp://ftp.se.debian.org/debian/pool/main/libj/libjpeg7/libjpeg7_7-1.diff.gz
p75
aVhttp://ftp.us.debian.org/debian/pool/main/libj/libjpeg7/libjpeg7_7-1.diff.gz
p76
aVhttp://ftp.be.debian.org/debian/pool/main/libj/libjpeg7/libjpeg7_7-1.diff.gz
p77
aVhttp://ftp.bg.debian.org/debian/pool/main/libj/libjpeg7/libjpeg7_7-1.diff.gz
p78
aVhttp://ftp.nz.debian.org/debian/pool/main/libj/libjpeg7/libjpeg7_7-1.diff.gz
p79
aVhttp://ftp.ua.debian.org/debian/pool/main/libj/libjpeg7/libjpeg7_7-1.diff.gz
p80
aVhttp://ftp.sk.debian.org/debian/pool/main/libj/libjpeg7/libjpeg7_7-1.diff.gz
p81
aVhttp://ftp.is.debian.org/debian/pool/main/libj/libjpeg7/libjpeg7_7-1.diff.gz
p82
aVhttp://ftp.ru.debian.org/debian/pool/main/libj/libjpeg7/libjpeg7_7-1.diff.gz
p83
aVhttp://ftp.ca.debian.org/debian/pool/main/libj/libjpeg7/libjpeg7_7-1.diff.gz
p84
aVhttp://ftp.gr.debian.org/debian/pool/main/libj/libjpeg7/libjpeg7_7-1.diff.gz
p85
aVhttp://ftp.mx.debian.org/debian/pool/main/libj/libjpeg7/libjpeg7_7-1.diff.gz
p86
a.