(lp0
Vftp://gentoo.mirrors.tds.net/gentoo/distfiles/libpng-1.2.43.tar.xz
p1
aVftp://ftp.lug.udel.edu/pub/gentoo/distfiles/libpng-1.2.43.tar.xz
p2
aVhttp://www.gtlib.gatech.edu/pub/gentoo/distfiles/libpng-1.2.43.tar.xz
p3
aVftp://ftp.wallawalla.edu/pub/mirrors/ftp.gentoo.org/distfiles/libpng-1.2.43.tar.xz
p4
aVftp://gentoo.netnitco.net/pub/mirrors/gentoo/source/distfiles/libpng-1.2.43.tar.xz
p5
aVhttp://gentoo.mirrors.easynews.com/linux/gentoo/distfiles/libpng-1.2.43.tar.xz
p6
aVhttp://gentoo.cites.uiuc.edu/pub/gentoo/distfiles/libpng-1.2.43.tar.xz
p7
aVftp://distro.ibiblio.org/pub/linux/distributions/gentoo/distfiles/libpng-1.2.43.tar.xz
p8
aVhttp://mirror.usu.edu/mirrors/gentoo/distfiles/libpng-1.2.43.tar.xz
p9
aVftp://gentoo.chem.wisc.edu/gentoo/distfiles/libpng-1.2.43.tar.xz
p10
aVhttp://chi-10g-1-mirror.fastsoft.net/pub/linux/gentoo/gentoo-distfiles/distfiles/libpng-1.2.43.tar.xz
p11
aVhttp://gentoo.osuosl.org/distfiles/libpng-1.2.43.tar.xz
p12
aVhttp://gentoo.mirrors.hoobly.com/distfiles/libpng-1.2.43.tar.xz
p13
aVftp://mirror.its.uidaho.edu/gentoo/distfiles/libpng-1.2.43.tar.xz
p14
aVftp://gentoo.llarian.net/pub/gentoo/distfiles/libpng-1.2.43.tar.xz
p15
aVftp://mirrors.rit.edu/gentoo/distfiles/libpng-1.2.43.tar.xz
p16
aVhttp://www.cyberuse.com/gentoo/distfiles/libpng-1.2.43.tar.xz
p17
aVhttp://mirror.datapipe.net/gentoo/distfiles/libpng-1.2.43.tar.xz
p18
aVhttp://gentoo.mirrors.tds.net/gentoo/distfiles/libpng-1.2.43.tar.xz
p19
aVhttp://mirrors.cs.wmich.edu/gentoo/distfiles/libpng-1.2.43.tar.xz
p20
aVhttp://distro.ibiblio.org/pub/linux/distributions/gentoo/distfiles/libpng-1.2.43.tar.xz
p21
aVhttp://mirrors.rit.edu/gentoo/distfiles/libpng-1.2.43.tar.xz
p22
aVftp://mirror.iawnet.sandia.gov/pub/gentoo/distfiles/libpng-1.2.43.tar.xz
p23
aVftp://ftp.ussg.iu.edu/pub/linux/gentoo/distfiles/libpng-1.2.43.tar.xz
p24
aVhttp://mirror.mcs.anl.gov/pub/gentoo/distfiles/libpng-1.2.43.tar.xz
p25
aVhttp://gentoo.cs.uni.edu/distfiles/libpng-1.2.43.tar.xz
p26
aVftp://gentoo.cites.uiuc.edu/pub/gentoo/distfiles/libpng-1.2.43.tar.xz
p27
aVftp://mirror.datapipe.net/gentoo/distfiles/libpng-1.2.43.tar.xz
p28
aVhttp://ftp.ucsb.edu/pub/mirrors/linux/gentoo/distfiles/libpng-1.2.43.tar.xz
p29
aVhttp://lug.mtu.edu/gentoo/distfiles/libpng-1.2.43.tar.xz
p30
aVhttp://mirror.its.uidaho.edu/pub/gentoo/distfiles/libpng-1.2.43.tar.xz
p31
aVftp://lug.mtu.edu/gentoo/distfiles/libpng-1.2.43.tar.xz
p32
aVhttp://gentoo.chem.wisc.edu/gentoo/distfiles/libpng-1.2.43.tar.xz
p33
aVhttp://gentoo.llarian.net/distfiles/libpng-1.2.43.tar.xz
p34
aVftp://ftp.ucsb.edu/pub/mirrors/linux/gentoo/distfiles/libpng-1.2.43.tar.xz
p35
aVhttp://gentoo.netnitco.net/distfiles/libpng-1.2.43.tar.xz
p36
aVftp://mirror.mcs.anl.gov/pub/gentoo/distfiles/libpng-1.2.43.tar.xz
p37
aVhttp://mirror.lug.udel.edu/pub/gentoo/distfiles/libpng-1.2.43.tar.xz
p38
aVftp://chi-10g-1-mirror.fastsoft.net/pub/linux/gentoo/gentoo-distfiles/distfiles/libpng-1.2.43.tar.xz
p39
aVftp://ftp.gtlib.gatech.edu/pub/gentoo/distfiles/libpng-1.2.43.tar.xz
p40
aVhttp://cdnetworks-kr-2.dl.sourceforge.net/sourceforge/libpng/libpng-1.2.43.tar.xz
p41
aVhttp://cdnetworks-kr-1.dl.sourceforge.net/sourceforge/libpng/libpng-1.2.43.tar.xz
p42
aVhttp://switch.dl.sourceforge.net/sourceforge/libpng/libpng-1.2.43.tar.xz
p43
aVhttp://nchc.dl.sourceforge.net/sourceforge/libpng/libpng-1.2.43.tar.xz
p44
aVhttp://dfn.dl.sourceforge.net/sourceforge/libpng/libpng-1.2.43.tar.xz
p45
aVhttp://internap.dl.sourceforge.net/sourceforge/libpng/libpng-1.2.43.tar.xz
p46
aVhttp://softlayer.dl.sourceforge.net/sourceforge/libpng/libpng-1.2.43.tar.xz
p47
aVhttp://heanet.dl.sourceforge.net/sourceforge/libpng/libpng-1.2.43.tar.xz
p48
aVhttp://kent.dl.sourceforge.net/sourceforge/libpng/libpng-1.2.43.tar.xz
p49
aVhttp://surfnet.dl.sourceforge.net/sourceforge/libpng/libpng-1.2.43.tar.xz
p50
aVhttp://iweb.dl.sourceforge.net/sourceforge/libpng/libpng-1.2.43.tar.xz
p51
aVhttp://ncu.dl.sourceforge.net/sourceforge/libpng/libpng-1.2.43.tar.xz
p52
aVhttp://waix.dl.sourceforge.net/sourceforge/libpng/libpng-1.2.43.tar.xz
p53
aVhttp://cdnetworks-us-1.dl.sourceforge.net/sourceforge/libpng/libpng-1.2.43.tar.xz
p54
aVhttp://sunet.dl.sourceforge.net/sourceforge/libpng/libpng-1.2.43.tar.xz
p55
aVhttp://garr.dl.sourceforge.net/sourceforge/libpng/libpng-1.2.43.tar.xz
p56
aVhttp://ignum.dl.sourceforge.net/sourceforge/libpng/libpng-1.2.43.tar.xz
p57
aVhttp://cdnetworks-us-2.dl.sourceforge.net/sourceforge/libpng/libpng-1.2.43.tar.xz
p58
aVhttp://jaist.dl.sourceforge.net/sourceforge/libpng/libpng-1.2.43.tar.xz
p59
aVhttp://biznetnetworks.dl.sourceforge.net/sourceforge/libpng/libpng-1.2.43.tar.xz
p60
aVhttp://puzzle.dl.sourceforge.net/sourceforge/libpng/libpng-1.2.43.tar.xz
p61
aVhttp://mesh.dl.sourceforge.net/sourceforge/libpng/libpng-1.2.43.tar.xz
p62
aVhttp://freefr.dl.sourceforge.net/sourceforge/libpng/libpng-1.2.43.tar.xz
p63
aVhttp://ovh.dl.sourceforge.net/sourceforge/libpng/libpng-1.2.43.tar.xz
p64
aVhttp://transact.dl.sourceforge.net/sourceforge/libpng/libpng-1.2.43.tar.xz
p65
aVhttp://internode.dl.sourceforge.net/sourceforge/libpng/libpng-1.2.43.tar.xz
p66
aVhttp://voxel.dl.sourceforge.net/sourceforge/libpng/libpng-1.2.43.tar.xz
p67
aVhttp://ufpr.dl.sourceforge.net/sourceforge/libpng/libpng-1.2.43.tar.xz
p68
a.